target datalayout = "e-m:e-p270:32:32-p271:32:32-p272:64:64-i64:64-i128:128-f80:128-n8:16:32:64-S128"
target triple = "x86_64-pc-linux-gnu"

%struct.nghttp2_nv = type { ptr, ptr, i64, i64, i8 }

; Function Attrs: nounwind uwtable
define internal i32 @bytes_compar(ptr noundef %0, i64 noundef %1, ptr noundef %2, i64 noundef %3) #0 {
  %5 = alloca i32, align 4
  %6 = alloca ptr, align 8
  %7 = alloca i64, align 8
  %8 = alloca ptr, align 8
  %9 = alloca i64, align 8
  %10 = alloca i32, align 4
  %11 = alloca i32, align 4
  store ptr %0, ptr %6, align 8, !tbaa !3
  store i64 %1, ptr %7, align 8, !tbaa !18
  store ptr %2, ptr %8, align 8, !tbaa !3
  store i64 %3, ptr %9, align 8, !tbaa !18
  call void @llvm.lifetime.start.p0(i64 4, ptr %10) #7
  %12 = load i64, ptr %7, align 8, !tbaa !18
  %13 = load i64, ptr %9, align 8, !tbaa !18
  %14 = icmp eq i64 %12, %13
  br i1 %14, label %15, label %20

15:                                               ; preds = %4
  %16 = load ptr, ptr %6, align 8, !tbaa !3
  %17 = load ptr, ptr %8, align 8, !tbaa !3
  %18 = load i64, ptr %7, align 8, !tbaa !18
  %19 = call i32 @memcmp(ptr noundef %16, ptr noundef %17, i64 noundef %18) #9
  store i32 %19, ptr %5, align 4
  store i32 1, ptr %11, align 4
  br label %44

20:                                               ; preds = %4
  %21 = load i64, ptr %7, align 8, !tbaa !18
  %22 = load i64, ptr %9, align 8, !tbaa !18
  %23 = icmp ult i64 %21, %22
  br i1 %23, label %24, label %34

24:                                               ; preds = %20
  %25 = load ptr, ptr %6, align 8, !tbaa !3
  %26 = load ptr, ptr %8, align 8, !tbaa !3
  %27 = load i64, ptr %7, align 8, !tbaa !18
  %28 = call i32 @memcmp(ptr noundef %25, ptr noundef %26, i64 noundef %27) #9
  store i32 %28, ptr %10, align 4, !tbaa !19
  %29 = load i32, ptr %10, align 4, !tbaa !19
  %30 = icmp eq i32 %29, 0
  br i1 %30, label %31, label %32

31:                                               ; preds = %24
  store i32 -1, ptr %5, align 4
  store i32 1, ptr %11, align 4
  br label %44

32:                                               ; preds = %24
  %33 = load i32, ptr %10, align 4, !tbaa !19
  store i32 %33, ptr %5, align 4
  store i32 1, ptr %11, align 4
  br label %44

34:                                               ; preds = %20
  %35 = load ptr, ptr %6, align 8, !tbaa !3
  %36 = load ptr, ptr %8, align 8, !tbaa !3
  %37 = load i64, ptr %9, align 8, !tbaa !18
  %38 = call i32 @memcmp(ptr noundef %35, ptr noundef %36, i64 noundef %37) #9
  store i32 %38, ptr %10, align 4, !tbaa !19
  %39 = load i32, ptr %10, align 4, !tbaa !19
  %40 = icmp eq i32 %39, 0
  br i1 %40, label %41, label %42

41:                                               ; preds = %34
  store i32 1, ptr %5, align 4
  store i32 1, ptr %11, align 4
  br label %44

42:                                               ; preds = %34
  %43 = load i32, ptr %10, align 4, !tbaa !19
  store i32 %43, ptr %5, align 4
  store i32 1, ptr %11, align 4
  br label %44

44:                                               ; preds = %42, %41, %32, %31, %15
  call void @llvm.lifetime.end.p0(i64 4, ptr %10) #7
  %45 = load i32, ptr %5, align 4
  ret i32 %45
}

; Function Attrs: nounwind uwtable
define internal i32 @nv_compar(ptr noundef %0, ptr noundef %1) #0 {
  %3 = alloca i32, align 4
  %4 = alloca ptr, align 8
  %5 = alloca ptr, align 8
  %6 = alloca ptr, align 8
  %7 = alloca ptr, align 8
  %8 = alloca i32, align 4
  %9 = alloca i32, align 4
  store ptr %0, ptr %4, align 8, !tbaa !8
  store ptr %1, ptr %5, align 8, !tbaa !8
  call void @llvm.lifetime.start.p0(i64 8, ptr %6) #7
  %10 = load ptr, ptr %4, align 8, !tbaa !8
  store ptr %10, ptr %6, align 8, !tbaa !8
  call void @llvm.lifetime.start.p0(i64 8, ptr %7) #7
  %11 = load ptr, ptr %5, align 8, !tbaa !8
  store ptr %11, ptr %7, align 8, !tbaa !8
  call void @llvm.lifetime.start.p0(i64 4, ptr %8) #7
  %12 = load ptr, ptr %6, align 8, !tbaa !8
  %13 = getelementptr inbounds nuw %struct.nghttp2_nv, ptr %12, i32 0, i32 0
  %14 = load ptr, ptr %13, align 8, !tbaa !106
  %15 = load ptr, ptr %6, align 8, !tbaa !8
  %16 = getelementptr inbounds nuw %struct.nghttp2_nv, ptr %15, i32 0, i32 2
  %17 = load i64, ptr %16, align 8, !tbaa !103
  %18 = load ptr, ptr %7, align 8, !tbaa !8
  %19 = getelementptr inbounds nuw %struct.nghttp2_nv, ptr %18, i32 0, i32 0
  %20 = load ptr, ptr %19, align 8, !tbaa !106
  %21 = load ptr, ptr %7, align 8, !tbaa !8
  %22 = getelementptr inbounds nuw %struct.nghttp2_nv, ptr %21, i32 0, i32 2
  %23 = load i64, ptr %22, align 8, !tbaa !103
  %24 = call i32 @bytes_compar(ptr noundef %14, i64 noundef %17, ptr noundef %20, i64 noundef %23)
  store i32 %24, ptr %8, align 4, !tbaa !19
  %25 = load i32, ptr %8, align 4, !tbaa !19
  %26 = icmp eq i32 %25, 0
  br i1 %26, label %27, label %41

27:                                               ; preds = %2
  %28 = load ptr, ptr %6, align 8, !tbaa !8
  %29 = getelementptr inbounds nuw %struct.nghttp2_nv, ptr %28, i32 0, i32 1
  %30 = load ptr, ptr %29, align 8, !tbaa !107
  %31 = load ptr, ptr %6, align 8, !tbaa !8
  %32 = getelementptr inbounds nuw %struct.nghttp2_nv, ptr %31, i32 0, i32 3
  %33 = load i64, ptr %32, align 8, !tbaa !105
  %34 = load ptr, ptr %7, align 8, !tbaa !8
  %35 = getelementptr inbounds nuw %struct.nghttp2_nv, ptr %34, i32 0, i32 1
  %36 = load ptr, ptr %35, align 8, !tbaa !107
  %37 = load ptr, ptr %7, align 8, !tbaa !8
  %38 = getelementptr inbounds nuw %struct.nghttp2_nv, ptr %37, i32 0, i32 3
  %39 = load i64, ptr %38, align 8, !tbaa !105
  %40 = call i32 @bytes_compar(ptr noundef %30, i64 noundef %33, ptr noundef %36, i64 noundef %39)
  store i32 %40, ptr %3, align 4
  store i32 1, ptr %9, align 4
  br label %43

41:                                               ; preds = %2
  %42 = load i32, ptr %8, align 4, !tbaa !19
  store i32 %42, ptr %3, align 4
  store i32 1, ptr %9, align 4
  br label %43

43:                                               ; preds = %41, %27
  call void @llvm.lifetime.end.p0(i64 4, ptr %8) #7
  call void @llvm.lifetime.end.p0(i64 8, ptr %7) #7
  call void @llvm.lifetime.end.p0(i64 8, ptr %6) #7
  %44 = load i32, ptr %3, align 4
  ret i32 %44
}