; Function Attrs: mustprogress nofree nounwind willreturn memory(read, inaccessiblemem: none) uwtable
define internal i32 @nv_compar(ptr noundef readonly captures(none) %0, ptr noundef readonly captures(none) %1) #12 {
  %3 = load ptr, ptr %0, align 8, !tbaa !97
  %4 = getelementptr inbounds nuw i8, ptr %0, i64 16
  %5 = load i64, ptr %4, align 8, !tbaa !94
  %6 = load ptr, ptr %1, align 8, !tbaa !97
  %7 = getelementptr inbounds nuw i8, ptr %1, i64 16
  %8 = load i64, ptr %7, align 8, !tbaa !94
  %9 = icmp eq i64 %5, %8
  br i1 %9, label %bytes_compar.exit, label %10

10:                                               ; preds = %2
  %11 = icmp ult i64 %5, %8
  br i1 %11, label %12, label %15

12:                                               ; preds = %10
  %13 = tail call i32 @memcmp(ptr noundef readonly %3, ptr noundef readonly %6, i64 noundef %5) #20
  %14 = icmp eq i32 %13, 0
  %spec.select = select i1 %14, i32 -1, i32 %13
  br label %bytes_compar.exit16

15:                                               ; preds = %10
  %16 = tail call i32 @memcmp(ptr noundef readonly %3, ptr noundef readonly %6, i64 noundef %8) #20
  %.21.i = tail call i32 @llvm.umax.i32(i32 %16, i32 1)
  br label %bytes_compar.exit16

bytes_compar.exit:                                ; preds = %2
  %17 = tail call i32 @memcmp(ptr noundef readonly %3, ptr noundef readonly %6, i64 noundef %5) #20
  %18 = icmp eq i32 %17, 0
  br i1 %18, label %19, label %bytes_compar.exit16

19:                                               ; preds = %bytes_compar.exit
  %20 = getelementptr inbounds nuw i8, ptr %0, i64 8
  %21 = load ptr, ptr %20, align 8, !tbaa !98
  %22 = getelementptr inbounds nuw i8, ptr %0, i64 24
  %23 = load i64, ptr %22, align 8, !tbaa !96
  %24 = getelementptr inbounds nuw i8, ptr %1, i64 8
  %25 = load ptr, ptr %24, align 8, !tbaa !98
  %26 = getelementptr inbounds nuw i8, ptr %1, i64 24
  %27 = load i64, ptr %26, align 8, !tbaa !96
  %28 = icmp eq i64 %23, %27
  br i1 %28, label %29, label %31

29:                                               ; preds = %19
  %30 = tail call i32 @memcmp(ptr noundef readonly %21, ptr noundef readonly %25, i64 noundef %23) #20
  br label %bytes_compar.exit16

31:                                               ; preds = %19
  %32 = icmp ult i64 %23, %27
  br i1 %32, label %33, label %36

33:                                               ; preds = %31
  %34 = tail call i32 @memcmp(ptr noundef readonly %21, ptr noundef readonly %25, i64 noundef %23) #20
  %35 = icmp eq i32 %34, 0
  %..i15 = select i1 %35, i32 -1, i32 %34
  br label %bytes_compar.exit16

36:                                               ; preds = %31
  %37 = tail call i32 @memcmp(ptr noundef readonly %21, ptr noundef readonly %25, i64 noundef %27) #20
  %.21.i13 = tail call i32 @llvm.umax.i32(i32 %37, i32 1)
  br label %bytes_compar.exit16

bytes_compar.exit16:                              ; preds = %12, %15, %36, %33, %29, %bytes_compar.exit
  %.0 = phi i32 [ %17, %bytes_compar.exit ], [ %30, %29 ], [ %..i15, %33 ], [ %.21.i13, %36 ], [ %.21.i, %15 ], [ %spec.select, %12 ]
  ret i32 %.0
}